; Function Attrs: mustprogress nounwind uwtable
define internal void @"_ZN4absl12lts_2023080222internal_any_invocable23RemoteManagerNontrivialIZN17grpc_event_engine12experimental16PosixEventEngine15ConnectInternalENS4_18PosixSocketWrapperENS0_12AnyInvocableIFvNS0_8StatusOrISt10unique_ptrINS4_11EventEngine8EndpointESt14default_deleteISB_EEEEEEENSA_15ResolvedAddressEONS4_15MemoryAllocatorERKNS4_15PosixTcpOptionsENSt6chrono8durationIlSt5ratioILl1ELl1000000000EEEEE3$_0EEvNS1_14FunctionToCallEPNS1_15TypeErasedStateESW_"(i1 noundef zeroext %operation, ptr nocapture noundef readonly %from, ptr nocapture noundef writeonly %to) #5 personality ptr @__gxx_personality_v0 {
entry:
  %0 = load ptr, ptr %from, align 16
  br i1 %operation, label %sw.bb2, label %sw.bb

sw.bb:                                            ; preds = %entry
  store ptr %0, ptr %to, align 16
  br label %do.end

sw.bb2:                                           ; preds = %entry
  %isnull = icmp eq ptr %0, null
  br i1 %isnull, label %do.end, label %delete.notnull

delete.notnull:                                   ; preds = %sw.bb2
  %1 = getelementptr inbounds i8, ptr %0, i64 32
  %2 = load i64, ptr %1, align 8
  %and.i.i.i.i = and i64 %2, 1
  %cmp.i.i.i.i = icmp eq i64 %and.i.i.i.i, 0
  br i1 %cmp.i.i.i.i, label %"_ZZN17grpc_event_engine12experimental16PosixEventEngine15ConnectInternalENS0_18PosixSocketWrapperEN4absl12lts_2023080212AnyInvocableIFvNS4_8StatusOrISt10unique_ptrINS0_11EventEngine8EndpointESt14default_deleteIS9_EEEEEEENS8_15ResolvedAddressEONS0_15MemoryAllocatorERKNS0_15PosixTcpOptionsENSt6chrono8durationIlSt5ratioILl1ELl1000000000EEEEEN3$_0D2Ev.exit", label %if.then.i.i.i

if.then.i.i.i:                                    ; preds = %delete.notnull
  invoke void @_ZN4absl12lts_202308026Status15UnrefNonInlinedEm(i64 noundef %2)
          to label %"_ZZN17grpc_event_engine12experimental16PosixEventEngine15ConnectInternalENS0_18PosixSocketWrapperEN4absl12lts_2023080212AnyInvocableIFvNS4_8StatusOrISt10unique_ptrINS0_11EventEngine8EndpointESt14default_deleteIS9_EEEEEEENS8_15ResolvedAddressEONS0_15MemoryAllocatorERKNS0_15PosixTcpOptionsENSt6chrono8durationIlSt5ratioILl1ELl1000000000EEEEEN3$_0D2Ev.exit" unwind label %terminate.lpad.i.i

terminate.lpad.i.i:                               ; preds = %if.then.i.i.i
  %3 = landingpad { ptr, i32 }
          catch ptr null
  %4 = extractvalue { ptr, i32 } %3, 0
  tail call void @__clang_call_terminate(ptr %4) #27
  unreachable

"_ZZN17grpc_event_engine12experimental16PosixEventEngine15ConnectInternalENS0_18PosixSocketWrapperEN4absl12lts_2023080212AnyInvocableIFvNS4_8StatusOrISt10unique_ptrINS0_11EventEngine8EndpointESt14default_deleteIS9_EEEEEEENS8_15ResolvedAddressEONS0_15MemoryAllocatorERKNS0_15PosixTcpOptionsENSt6chrono8durationIlSt5ratioILl1ELl1000000000EEEEEN3$_0D2Ev.exit": ; preds = %delete.notnull, %if.then.i.i.i
  %manager_.i.i.i.i = getelementptr inbounds i8, ptr %0, i64 16
  %5 = load ptr, ptr %manager_.i.i.i.i, align 16
  tail call void %5(i1 noundef zeroext true, ptr noundef nonnull %0, ptr noundef nonnull %0) #26
  tail call void @_ZdlPv(ptr noundef nonnull %0) #28
  br label %do.end

do.end:                                           ; preds = %sw.bb2, %"_ZZN17grpc_event_engine12experimental16PosixEventEngine15ConnectInternalENS0_18PosixSocketWrapperEN4absl12lts_2023080212AnyInvocableIFvNS4_8StatusOrISt10unique_ptrINS0_11EventEngine8EndpointESt14default_deleteIS9_EEEEEEENS8_15ResolvedAddressEONS0_15MemoryAllocatorERKNS0_15PosixTcpOptionsENSt6chrono8durationIlSt5ratioILl1ELl1000000000EEEEEN3$_0D2Ev.exit", %sw.bb
  ret void
}